target datalayout = "e-m:e-p270:32:32-p271:32:32-p272:64:64-i64:64-i128:128-f80:128-n8:16:32:64-S128"
target triple = "x86_64-pc-linux-gnu"

%struct.mbedtls_ssl_context = type { ptr, i32, i32, i32, i32, i32, ptr, ptr, ptr, ptr, ptr, ptr, ptr, ptr, ptr, ptr, ptr, ptr, ptr, ptr, ptr, ptr, ptr, ptr, ptr, ptr, ptr, ptr, ptr, ptr, ptr, ptr, ptr, i32, i64, i64, i16, i64, i64, i64, i64, i32, i32, i8, i8, i32, i8, ptr, ptr, ptr, ptr, ptr, ptr, ptr, i32, i64, i64, [8 x i8], i16, ptr, ptr, ptr, i64, i32, i64, [12 x i8], [12 x i8], [32 x i8], i8, i8, ptr, ptr, %union.mbedtls_ssl_user_data_t }
%union.mbedtls_ssl_user_data_t = type { i64 }
%struct.mbedtls_ssl_config = type { i32, i32, i8, i8, i8, i8, i8, i8, i8, i8, i8, i8, i16, i8, i8, i8, ptr, i32, ptr, ptr, ptr, ptr, ptr, ptr, ptr, ptr, ptr, ptr, ptr, ptr, ptr, ptr, ptr, ptr, ptr, ptr, ptr, i64, ptr, ptr, ptr, ptr, ptr, ptr, ptr, ptr, %struct.mbedtls_mpi, %struct.mbedtls_mpi, ptr, i64, ptr, i64, ptr, i32, i32, i32, i32, [8 x i8], i32, i32, %union.mbedtls_ssl_user_data_t, ptr, ptr }
%struct.mbedtls_mpi = type { ptr, i16, i16 }

@debug_threshold = internal global i32 0, align 4
@.str = private unnamed_addr constant [28 x i8] c"%s() returned %d (-0x%04x)\0A\00", align 1

; Function Attrs: inlinehint nounwind uwtable
define internal void @debug_send_line(ptr noundef %0, i32 noundef %1, ptr noundef %2, i32 noundef %3, ptr noundef %4) #4 {
  %6 = alloca ptr, align 8
  %7 = alloca i32, align 4
  %8 = alloca ptr, align 8
  %9 = alloca i32, align 4
  %10 = alloca ptr, align 8
  store ptr %0, ptr %6, align 8, !tbaa !7
  store i32 %1, ptr %7, align 4, !tbaa !3
  store ptr %2, ptr %8, align 8, !tbaa !10
  store i32 %3, ptr %9, align 4, !tbaa !3
  store ptr %4, ptr %10, align 8, !tbaa !10
  %11 = load ptr, ptr %6, align 8, !tbaa !7
  %12 = getelementptr inbounds nuw %struct.mbedtls_ssl_context, ptr %11, i32 0, i32 0
  %13 = load ptr, ptr %12, align 8, !tbaa !12
  %14 = getelementptr inbounds nuw %struct.mbedtls_ssl_config, ptr %13, i32 0, i32 18
  %15 = load ptr, ptr %14, align 8, !tbaa !20
  %16 = load ptr, ptr %6, align 8, !tbaa !7
  %17 = getelementptr inbounds nuw %struct.mbedtls_ssl_context, ptr %16, i32 0, i32 0
  %18 = load ptr, ptr %17, align 8, !tbaa !12
  %19 = getelementptr inbounds nuw %struct.mbedtls_ssl_config, ptr %18, i32 0, i32 19
  %20 = load ptr, ptr %19, align 8, !tbaa !33
  %21 = load i32, ptr %7, align 4, !tbaa !3
  %22 = load ptr, ptr %8, align 8, !tbaa !10
  %23 = load i32, ptr %9, align 4, !tbaa !3
  %24 = load ptr, ptr %10, align 8, !tbaa !10
  call void %15(ptr noundef %20, i32 noundef %21, ptr noundef %22, i32 noundef %23, ptr noundef %24)
  ret void
}

; Function Attrs: nounwind uwtable
define hidden void @mbedtls_debug_print_ret(ptr noundef %0, i32 noundef %1, ptr noundef %2, i32 noundef %3, ptr noundef %4, i32 noundef %5) #0 {
  %7 = alloca ptr, align 8
  %8 = alloca i32, align 4
  %9 = alloca ptr, align 8
  %10 = alloca i32, align 4
  %11 = alloca ptr, align 8
  %12 = alloca i32, align 4
  %13 = alloca [512 x i8], align 16
  %14 = alloca i32, align 4
  store ptr %0, ptr %7, align 8, !tbaa !7
  store i32 %1, ptr %8, align 4, !tbaa !3
  store ptr %2, ptr %9, align 8, !tbaa !10
  store i32 %3, ptr %10, align 4, !tbaa !3
  store ptr %4, ptr %11, align 8, !tbaa !10
  store i32 %5, ptr %12, align 4, !tbaa !3
  call void @llvm.lifetime.start.p0(i64 512, ptr %13) #8
  %15 = load ptr, ptr %7, align 8, !tbaa !7
  %16 = icmp eq ptr null, %15
  br i1 %16, label %33, label %17

17:                                               ; preds = %6
  %18 = load ptr, ptr %7, align 8, !tbaa !7
  %19 = getelementptr inbounds nuw %struct.mbedtls_ssl_context, ptr %18, i32 0, i32 0
  %20 = load ptr, ptr %19, align 8, !tbaa !12
  %21 = icmp eq ptr null, %20
  br i1 %21, label %33, label %22

22:                                               ; preds = %17
  %23 = load ptr, ptr %7, align 8, !tbaa !7
  %24 = getelementptr inbounds nuw %struct.mbedtls_ssl_context, ptr %23, i32 0, i32 0
  %25 = load ptr, ptr %24, align 8, !tbaa !12
  %26 = getelementptr inbounds nuw %struct.mbedtls_ssl_config, ptr %25, i32 0, i32 18
  %27 = load ptr, ptr %26, align 8, !tbaa !20
  %28 = icmp eq ptr null, %27
  br i1 %28, label %33, label %29

29:                                               ; preds = %22
  %30 = load i32, ptr %8, align 4, !tbaa !3
  %31 = load i32, ptr @debug_threshold, align 4, !tbaa !3
  %32 = icmp sgt i32 %30, %31
  br i1 %32, label %33, label %34

33:                                               ; preds = %29, %22, %17, %6
  store i32 1, ptr %14, align 4
  br label %50

34:                                               ; preds = %29
  %35 = load i32, ptr %12, align 4, !tbaa !3
  %36 = icmp eq i32 %35, -26880
  br i1 %36, label %37, label %38

37:                                               ; preds = %34
  store i32 1, ptr %14, align 4
  br label %50

38:                                               ; preds = %34
  %39 = getelementptr inbounds [512 x i8], ptr %13, i64 0, i64 0
  %40 = load ptr, ptr %11, align 8, !tbaa !10
  %41 = load i32, ptr %12, align 4, !tbaa !3
  %42 = load i32, ptr %12, align 4, !tbaa !3
  %43 = sub nsw i32 0, %42
  %44 = call i32 (ptr, i64, ptr, ...) @snprintf(ptr noundef %39, i64 noundef 512, ptr noundef @.str, ptr noundef %40, i32 noundef %41, i32 noundef %43) #8
  %45 = load ptr, ptr %7, align 8, !tbaa !7
  %46 = load i32, ptr %8, align 4, !tbaa !3
  %47 = load ptr, ptr %9, align 8, !tbaa !10
  %48 = load i32, ptr %10, align 4, !tbaa !3
  %49 = getelementptr inbounds [512 x i8], ptr %13, i64 0, i64 0
  call void @debug_send_line(ptr noundef %45, i32 noundef %46, ptr noundef %47, i32 noundef %48, ptr noundef %49)
  store i32 0, ptr %14, align 4
  br label %50

50:                                               ; preds = %38, %37, %33
  call void @llvm.lifetime.end.p0(i64 512, ptr %13) #8
  %51 = load i32, ptr %14, align 4
  switch i32 %51, label %53 [
    i32 0, label %52
    i32 1, label %52
  ]

52:                                               ; preds = %50, %50
  ret void

53:                                               ; preds = %50
  unreachable
}