; Function Attrs: nounwind uwtable
define hidden void @mbedtls_debug_print_ret(ptr noundef readonly %0, i32 noundef %1, ptr noundef %2, i32 noundef %3, ptr noundef %4, i32 noundef %5) local_unnamed_addr #1 {
  %7 = alloca [512 x i8], align 16
  call void @llvm.lifetime.start.p0(i64 512, ptr nonnull %7) #9
  %8 = icmp eq ptr %0, null
  br i1 %8, label %24, label %9

9:                                                ; preds = %6
  %10 = load ptr, ptr %0, align 8, !tbaa !7
  %11 = icmp eq ptr %10, null
  br i1 %11, label %24, label %12

12:                                               ; preds = %9
  %13 = getelementptr inbounds nuw i8, ptr %10, i64 40
  %14 = load ptr, ptr %13, align 8, !tbaa !17
  %15 = icmp eq ptr %14, null
  %16 = load i32, ptr @debug_threshold, align 4
  %17 = icmp sgt i32 %1, %16
  %or.cond = select i1 %15, i1 true, i1 %17
  %18 = icmp eq i32 %5, -26880
  %or.cond15 = or i1 %18, %or.cond
  br i1 %or.cond15, label %24, label %19

19:                                               ; preds = %12
  %20 = sub nsw i32 0, %5
  %21 = call i32 (ptr, i64, ptr, ...) @snprintf(ptr noundef nonnull dereferenceable(1) %7, i64 noundef 512, ptr noundef nonnull @.str, ptr noundef %4, i32 noundef %5, i32 noundef %20) #9
  %.val = load ptr, ptr %0, align 8, !tbaa !7
  %22 = getelementptr i8, ptr %.val, i64 40
  %.val.val = load ptr, ptr %22, align 8, !tbaa !17
  %23 = getelementptr i8, ptr %.val, i64 48
  %.val.val16 = load ptr, ptr %23, align 8, !tbaa !30
  call void %.val.val(ptr noundef %.val.val16, i32 noundef %1, ptr noundef %2, i32 noundef %3, ptr noundef nonnull %7) #9
  br label %24

24:                                               ; preds = %6, %9, %12, %19
  call void @llvm.lifetime.end.p0(i64 512, ptr nonnull %7) #9
  ret void
}